target datalayout = "e-m:e-p270:32:32-p271:32:32-p272:64:64-i64:64-i128:128-f80:128-n8:16:32:64-S128"
target triple = "x86_64-pc-linux-gnu"

%"class.Luau::CodeGen::NativeModule" = type { %"struct.std::atomic", ptr, %"class.std::optional", ptr, %"class.std::vector" }
%"struct.std::atomic" = type { %"struct.std::__atomic_base" }
%"struct.std::__atomic_base" = type { i64 }
%"class.std::optional" = type { %"struct.std::_Optional_base" }
%"struct.std::_Optional_base" = type { %"struct.std::_Optional_payload" }
%"struct.std::_Optional_payload" = type { %"struct.std::_Optional_payload_base" }
%"struct.std::_Optional_payload_base" = type { %"union.std::_Optional_payload_base<std::array<unsigned char, 16>>::_Storage", i8 }
%"union.std::_Optional_payload_base<std::array<unsigned char, 16>>::_Storage" = type { %"struct.std::array" }
%"struct.std::array" = type { [16 x i8] }
%"class.std::vector" = type { %"struct.std::_Vector_base" }
%"struct.std::_Vector_base" = type { %"struct.std::_Vector_base<std::unique_ptr<unsigned int[], Luau::CodeGen::NativeProtoExecDataDeleter>, std::allocator<std::unique_ptr<unsigned int[], Luau::CodeGen::NativeProtoExecDataDeleter>>>::_Vector_impl" }
%"struct.std::_Vector_base<std::unique_ptr<unsigned int[], Luau::CodeGen::NativeProtoExecDataDeleter>, std::allocator<std::unique_ptr<unsigned int[], Luau::CodeGen::NativeProtoExecDataDeleter>>>::_Vector_impl" = type { %"struct.std::_Vector_base<std::unique_ptr<unsigned int[], Luau::CodeGen::NativeProtoExecDataDeleter>, std::allocator<std::unique_ptr<unsigned int[], Luau::CodeGen::NativeProtoExecDataDeleter>>>::_Vector_impl_data" }
%"struct.std::_Vector_base<std::unique_ptr<unsigned int[], Luau::CodeGen::NativeProtoExecDataDeleter>, std::allocator<std::unique_ptr<unsigned int[], Luau::CodeGen::NativeProtoExecDataDeleter>>>::_Vector_impl_data" = type { ptr, ptr, ptr }
%"class.Luau::CodeGen::NativeModuleRef" = type { ptr }

; Function Attrs: mustprogress nounwind uwtable
define dso_local noundef i64 @_ZNK4Luau7CodeGen12NativeModule7releaseEv(ptr noundef nonnull align 8 dereferenceable(72) %0) #0 align 2 personality ptr @__gxx_personality_v0 {
  %2 = alloca ptr, align 8
  %3 = alloca i64, align 8
  %4 = alloca i32, align 4
  %5 = alloca i64, align 8
  %6 = alloca i64, align 8
  %7 = alloca i64, align 8
  %8 = alloca ptr, align 8
  %9 = alloca i64, align 8
  store ptr %0, ptr %8, align 8
  %10 = load ptr, ptr %8, align 8
  %11 = getelementptr inbounds %"class.Luau::CodeGen::NativeModule", ptr %10, i32 0, i32 0
  store ptr %11, ptr %2, align 8
  store i64 1, ptr %3, align 8
  store i32 5, ptr %4, align 4
  %12 = load ptr, ptr %2, align 8
  %13 = load i32, ptr %4, align 4
  %14 = load i64, ptr %3, align 8
  store i64 %14, ptr %5, align 8
  switch i32 %13, label %15 [
    i32 1, label %18
    i32 2, label %18
    i32 3, label %21
    i32 4, label %24
    i32 5, label %27
  ]

15:                                               ; preds = %1
  %16 = load i64, ptr %5, align 8
  %17 = atomicrmw sub ptr %12, i64 %16 monotonic, align 8
  store i64 %17, ptr %6, align 8
  br label %30

18:                                               ; preds = %1, %1
  %19 = load i64, ptr %5, align 8
  %20 = atomicrmw sub ptr %12, i64 %19 acquire, align 8
  store i64 %20, ptr %6, align 8
  br label %30

21:                                               ; preds = %1
  %22 = load i64, ptr %5, align 8
  %23 = atomicrmw sub ptr %12, i64 %22 release, align 8
  store i64 %23, ptr %6, align 8
  br label %30

24:                                               ; preds = %1
  %25 = load i64, ptr %5, align 8
  %26 = atomicrmw sub ptr %12, i64 %25 acq_rel, align 8
  store i64 %26, ptr %6, align 8
  br label %30

27:                                               ; preds = %1
  %28 = load i64, ptr %5, align 8
  %29 = atomicrmw sub ptr %12, i64 %28 seq_cst, align 8
  store i64 %29, ptr %6, align 8
  br label %30

30:                                               ; preds = %27, %24, %21, %18, %15
  %31 = load i64, ptr %6, align 8
  %32 = sub i64 %31, 1
  store i64 %32, ptr %9, align 8
  %33 = load i64, ptr %9, align 8
  %34 = icmp ne i64 %33, 0
  br i1 %34, label %35, label %37

35:                                               ; preds = %30
  %36 = load i64, ptr %9, align 8
  store i64 %36, ptr %7, align 8
  br label %41

37:                                               ; preds = %30
  %38 = getelementptr inbounds %"class.Luau::CodeGen::NativeModule", ptr %10, i32 0, i32 1
  %39 = load ptr, ptr %38, align 8
  invoke void @_ZN4Luau7CodeGen19SharedCodeAllocator31eraseNativeModuleIfUnreferencedERKNS0_12NativeModuleE(ptr noundef nonnull align 8 dereferenceable(112) %39, ptr noundef nonnull align 8 dereferenceable(72) %10)
          to label %40 unwind label %43

40:                                               ; preds = %37
  store i64 0, ptr %7, align 8
  br label %41

41:                                               ; preds = %40, %35
  %42 = load i64, ptr %7, align 8
  ret i64 %42

43:                                               ; preds = %37
  %44 = landingpad { ptr, i32 }
          catch ptr null
  %45 = extractvalue { ptr, i32 } %44, 0
  call void @__clang_call_terminate(ptr %45) #15
  unreachable
}

; Function Attrs: mustprogress nounwind uwtable
define dso_local void @_ZN4Luau7CodeGen15NativeModuleRef5resetEv(ptr noundef nonnull align 8 dereferenceable(8) %0) #0 align 2 {
  %2 = alloca ptr, align 8
  store ptr %0, ptr %2, align 8
  %3 = load ptr, ptr %2, align 8
  %4 = getelementptr inbounds %"class.Luau::CodeGen::NativeModuleRef", ptr %3, i32 0, i32 0
  %5 = load ptr, ptr %4, align 8
  %6 = icmp eq ptr %5, null
  br i1 %6, label %7, label %8

7:                                                ; preds = %1
  br label %13

8:                                                ; preds = %1
  %9 = getelementptr inbounds %"class.Luau::CodeGen::NativeModuleRef", ptr %3, i32 0, i32 0
  %10 = load ptr, ptr %9, align 8
  %11 = call noundef i64 @_ZNK4Luau7CodeGen12NativeModule7releaseEv(ptr noundef nonnull align 8 dereferenceable(72) %10) #14
  %12 = getelementptr inbounds %"class.Luau::CodeGen::NativeModuleRef", ptr %3, i32 0, i32 0
  store ptr null, ptr %12, align 8
  br label %13

13:                                               ; preds = %8, %7
  ret void
}

; Function Attrs: mustprogress nounwind uwtable
define dso_local void @_ZN4Luau7CodeGen15NativeModuleRefD2Ev(ptr noundef nonnull align 8 dereferenceable(8) %0) unnamed_addr #0 align 2 {
  %2 = alloca ptr, align 8
  store ptr %0, ptr %2, align 8
  %3 = load ptr, ptr %2, align 8
  call void @_ZN4Luau7CodeGen15NativeModuleRef5resetEv(ptr noundef nonnull align 8 dereferenceable(8) %3) #14
  ret void
}